target datalayout = "e-m:e-p270:32:32-p271:32:32-p272:64:64-i64:64-i128:128-f80:128-n8:16:32:64-S128"
target triple = "x86_64-pc-linux-gnu"

%struct.variable = type { ptr, ptr, i32, ptr }
%struct.ECPGtype = type { i32, ptr, ptr, ptr, %union.anon, i32 }
%union.anon = type { ptr }

@allvariables = internal global ptr null, align 8
@.str = private unnamed_addr constant [4 x i8] c".[-\00", align 1
@.str.1 = private unnamed_addr constant [33 x i8] c"unmatched brace in variable \22%s\22\00", align 1
@.str.2 = private unnamed_addr constant [30 x i8] c"variable \22%s\22 is not declared\00", align 1
@.str.3 = private unnamed_addr constant [31 x i8] c"variable \22%s\22 is not a pointer\00", align 1

; Function Attrs: nounwind uwtable
define dso_local ptr @new_variable(ptr noundef %0, ptr noundef %1, i32 noundef %2) #0 {
  %4 = alloca ptr, align 8
  %5 = alloca ptr, align 8
  %6 = alloca i32, align 4
  %7 = alloca ptr, align 8
  store ptr %0, ptr %4, align 8
  store ptr %1, ptr %5, align 8
  store i32 %2, ptr %6, align 4
  call void @llvm.lifetime.start.p0(i64 8, ptr %7) #7
  %8 = call ptr @mm_alloc(i64 noundef 32)
  store ptr %8, ptr %7, align 8
  %9 = load ptr, ptr %4, align 8
  %10 = call ptr @mm_strdup(ptr noundef %9)
  %11 = load ptr, ptr %7, align 8
  %12 = getelementptr inbounds nuw %struct.variable, ptr %11, i32 0, i32 0
  store ptr %10, ptr %12, align 8
  %13 = load ptr, ptr %5, align 8
  %14 = load ptr, ptr %7, align 8
  %15 = getelementptr inbounds nuw %struct.variable, ptr %14, i32 0, i32 1
  store ptr %13, ptr %15, align 8
  %16 = load i32, ptr %6, align 4
  %17 = load ptr, ptr %7, align 8
  %18 = getelementptr inbounds nuw %struct.variable, ptr %17, i32 0, i32 2
  store i32 %16, ptr %18, align 8
  %19 = load ptr, ptr @allvariables, align 8
  %20 = load ptr, ptr %7, align 8
  %21 = getelementptr inbounds nuw %struct.variable, ptr %20, i32 0, i32 3
  store ptr %19, ptr %21, align 8
  %22 = load ptr, ptr %7, align 8
  store ptr %22, ptr @allvariables, align 8
  %23 = load ptr, ptr %7, align 8
  call void @llvm.lifetime.end.p0(i64 8, ptr %7) #7
  ret ptr %23
}

; Function Attrs: nounwind uwtable
define internal ptr @find_simple(ptr noundef %0) #0 {
  %2 = alloca ptr, align 8
  %3 = alloca ptr, align 8
  %4 = alloca ptr, align 8
  %5 = alloca i32, align 4
  store ptr %0, ptr %3, align 8
  call void @llvm.lifetime.start.p0(i64 8, ptr %4) #7
  %6 = load ptr, ptr @allvariables, align 8
  store ptr %6, ptr %4, align 8
  br label %7

7:                                                ; preds = %20, %1
  %8 = load ptr, ptr %4, align 8
  %9 = icmp ne ptr %8, null
  br i1 %9, label %10, label %24

10:                                               ; preds = %7
  %11 = load ptr, ptr %4, align 8
  %12 = getelementptr inbounds nuw %struct.variable, ptr %11, i32 0, i32 0
  %13 = load ptr, ptr %12, align 8
  %14 = load ptr, ptr %3, align 8
  %15 = call i32 @strcmp(ptr noundef %13, ptr noundef %14) #8
  %16 = icmp eq i32 %15, 0
  br i1 %16, label %17, label %19

17:                                               ; preds = %10
  %18 = load ptr, ptr %4, align 8
  store ptr %18, ptr %2, align 8
  store i32 1, ptr %5, align 4
  br label %25

19:                                               ; preds = %10
  br label %20

20:                                               ; preds = %19
  %21 = load ptr, ptr %4, align 8
  %22 = getelementptr inbounds nuw %struct.variable, ptr %21, i32 0, i32 3
  %23 = load ptr, ptr %22, align 8
  store ptr %23, ptr %4, align 8
  br label %7, !llvm.loop !6

24:                                               ; preds = %7
  store ptr null, ptr %2, align 8
  store i32 1, ptr %5, align 4
  br label %25

25:                                               ; preds = %24, %17
  call void @llvm.lifetime.end.p0(i64 8, ptr %4) #7
  %26 = load ptr, ptr %2, align 8
  ret ptr %26
}

; Function Attrs: nounwind uwtable
define dso_local ptr @find_variable(ptr noundef %0) #0 {
  %2 = alloca ptr, align 8
  %3 = alloca ptr, align 8
  %4 = alloca ptr, align 8
  %5 = alloca ptr, align 8
  %6 = alloca ptr, align 8
  %7 = alloca i32, align 4
  %8 = alloca i8, align 1
  %9 = alloca i32, align 4
  store ptr %0, ptr %3, align 8
  call void @llvm.lifetime.start.p0(i64 8, ptr %4) #7
  call void @llvm.lifetime.start.p0(i64 8, ptr %5) #7
  call void @llvm.lifetime.start.p0(i64 8, ptr %6) #7
  call void @llvm.lifetime.start.p0(i64 4, ptr %7) #7
  %10 = load ptr, ptr %3, align 8
  %11 = call ptr @strpbrk(ptr noundef %10, ptr noundef @.str) #8
  store ptr %11, ptr %4, align 8
  %12 = load ptr, ptr %4, align 8
  %13 = icmp ne ptr %12, null
  br i1 %13, label %14, label %194

14:                                               ; preds = %1
  %15 = load ptr, ptr %4, align 8
  %16 = load i8, ptr %15, align 1
  %17 = sext i8 %16 to i32
  %18 = icmp eq i32 %17, 91
  br i1 %18, label %19, label %188

19:                                               ; preds = %14
  store i32 1, ptr %7, align 4
  %20 = load ptr, ptr %4, align 8
  %21 = getelementptr inbounds i8, ptr %20, i64 1
  store ptr %21, ptr %5, align 8
  br label %22

22:                                               ; preds = %39, %19
  %23 = load i32, ptr %7, align 4
  %24 = icmp ne i32 %23, 0
  br i1 %24, label %25, label %42

25:                                               ; preds = %22
  %26 = load ptr, ptr %5, align 8
  %27 = load i8, ptr %26, align 1
  %28 = sext i8 %27 to i32
  switch i32 %28, label %37 [
    i32 91, label %29
    i32 93, label %32
    i32 0, label %35
  ]

29:                                               ; preds = %25
  %30 = load i32, ptr %7, align 4
  %31 = add i32 %30, 1
  store i32 %31, ptr %7, align 4
  br label %38

32:                                               ; preds = %25
  %33 = load i32, ptr %7, align 4
  %34 = add i32 %33, -1
  store i32 %34, ptr %7, align 4
  br label %38

35:                                               ; preds = %25
  %36 = load ptr, ptr %3, align 8
  call void (i32, ptr, ...) @mmfatal(i32 noundef 3, ptr noundef @.str.1, ptr noundef %36) #9
  unreachable

37:                                               ; preds = %25
  br label %38

38:                                               ; preds = %37, %32, %29
  br label %39

39:                                               ; preds = %38
  %40 = load ptr, ptr %5, align 8
  %41 = getelementptr inbounds nuw i8, ptr %40, i32 1
  store ptr %41, ptr %5, align 8
  br label %22, !llvm.loop !4

42:                                               ; preds = %22
  %43 = load ptr, ptr %5, align 8
  %44 = load i8, ptr %43, align 1
  %45 = sext i8 %44 to i32
  %46 = icmp eq i32 %45, 46
  br i1 %46, label %47, label %52

47:                                               ; preds = %42
  %48 = load ptr, ptr %3, align 8
  %49 = load ptr, ptr %4, align 8
  %50 = load ptr, ptr %5, align 8
  %51 = call ptr @find_struct(ptr noundef %48, ptr noundef %49, ptr noundef %50)
  store ptr %51, ptr %6, align 8
  br label %187

52:                                               ; preds = %42
  call void @llvm.lifetime.start.p0(i64 1, ptr %8) #7
  %53 = load ptr, ptr %4, align 8
  %54 = load i8, ptr %53, align 1
  store i8 %54, ptr %8, align 1
  %55 = load ptr, ptr %4, align 8
  store i8 0, ptr %55, align 1
  %56 = load ptr, ptr %3, align 8
  %57 = call ptr @find_simple(ptr noundef %56)
  store ptr %57, ptr %6, align 8
  %58 = load ptr, ptr %6, align 8
  %59 = icmp eq ptr %58, null
  br i1 %59, label %60, label %62

60:                                               ; preds = %52
  %61 = load ptr, ptr %3, align 8
  call void (i32, ptr, ...) @mmfatal(i32 noundef 3, ptr noundef @.str.2, ptr noundef %61) #9
  unreachable

62:                                               ; preds = %52
  %63 = load ptr, ptr %6, align 8
  %64 = getelementptr inbounds nuw %struct.variable, ptr %63, i32 0, i32 1
  %65 = load ptr, ptr %64, align 8
  %66 = getelementptr inbounds nuw %struct.ECPGtype, ptr %65, i32 0, i32 0
  %67 = load i32, ptr %66, align 8
  %68 = icmp ne i32 %67, 21
  br i1 %68, label %69, label %71

69:                                               ; preds = %62
  %70 = load ptr, ptr %3, align 8
  call void (i32, ptr, ...) @mmfatal(i32 noundef 3, ptr noundef @.str.3, ptr noundef %70) #9
  unreachable

71:                                               ; preds = %62
  %72 = load i8, ptr %8, align 1
  %73 = load ptr, ptr %4, align 8
  store i8 %72, ptr %73, align 1
  %74 = load ptr, ptr %6, align 8
  %75 = getelementptr inbounds nuw %struct.variable, ptr %74, i32 0, i32 1
  %76 = load ptr, ptr %75, align 8
  %77 = getelementptr inbounds nuw %struct.ECPGtype, ptr %76, i32 0, i32 4
  %78 = load ptr, ptr %77, align 8
  %79 = getelementptr inbounds nuw %struct.ECPGtype, ptr %78, i32 0, i32 0
  %80 = load i32, ptr %79, align 8
  switch i32 %80, label %158 [
    i32 21, label %81
    i32 22, label %123
    i32 23, label %123
  ]

81:                                               ; preds = %71
  %82 = load ptr, ptr %3, align 8
  %83 = load ptr, ptr %6, align 8
  %84 = getelementptr inbounds nuw %struct.variable, ptr %83, i32 0, i32 1
  %85 = load ptr, ptr %84, align 8
  %86 = getelementptr inbounds nuw %struct.ECPGtype, ptr %85, i32 0, i32 4
  %87 = load ptr, ptr %86, align 8
  %88 = getelementptr inbounds nuw %struct.ECPGtype, ptr %87, i32 0, i32 4
  %89 = load ptr, ptr %88, align 8
  %90 = getelementptr inbounds nuw %struct.ECPGtype, ptr %89, i32 0, i32 0
  %91 = load i32, ptr %90, align 8
  %92 = load ptr, ptr %6, align 8
  %93 = getelementptr inbounds nuw %struct.variable, ptr %92, i32 0, i32 1
  %94 = load ptr, ptr %93, align 8
  %95 = getelementptr inbounds nuw %struct.ECPGtype, ptr %94, i32 0, i32 4
  %96 = load ptr, ptr %95, align 8
  %97 = getelementptr inbounds nuw %struct.ECPGtype, ptr %96, i32 0, i32 4
  %98 = load ptr, ptr %97, align 8
  %99 = getelementptr inbounds nuw %struct.ECPGtype, ptr %98, i32 0, i32 2
  %100 = load ptr, ptr %99, align 8
  %101 = load ptr, ptr %6, align 8
  %102 = getelementptr inbounds nuw %struct.variable, ptr %101, i32 0, i32 1
  %103 = load ptr, ptr %102, align 8
  %104 = getelementptr inbounds nuw %struct.ECPGtype, ptr %103, i32 0, i32 4
  %105 = load ptr, ptr %104, align 8
  %106 = getelementptr inbounds nuw %struct.ECPGtype, ptr %105, i32 0, i32 4
  %107 = load ptr, ptr %106, align 8
  %108 = getelementptr inbounds nuw %struct.ECPGtype, ptr %107, i32 0, i32 5
  %109 = load i32, ptr %108, align 8
  %110 = call ptr @ECPGmake_simple_type(i32 noundef %91, ptr noundef %100, i32 noundef %109)
  %111 = load ptr, ptr %6, align 8
  %112 = getelementptr inbounds nuw %struct.variable, ptr %111, i32 0, i32 1
  %113 = load ptr, ptr %112, align 8
  %114 = getelementptr inbounds nuw %struct.ECPGtype, ptr %113, i32 0, i32 4
  %115 = load ptr, ptr %114, align 8
  %116 = getelementptr inbounds nuw %struct.ECPGtype, ptr %115, i32 0, i32 2
  %117 = load ptr, ptr %116, align 8
  %118 = call ptr @ECPGmake_array_type(ptr noundef %110, ptr noundef %117)
  %119 = load ptr, ptr %6, align 8
  %120 = getelementptr inbounds nuw %struct.variable, ptr %119, i32 0, i32 2
  %121 = load i32, ptr %120, align 8
  %122 = call ptr @new_variable(ptr noundef %82, ptr noundef %118, i32 noundef %121)
  store ptr %122, ptr %2, align 8
  store i32 1, ptr %9, align 4
  br label %186

123:                                              ; preds = %71, %71
  %124 = load ptr, ptr %3, align 8
  %125 = load ptr, ptr %6, align 8
  %126 = getelementptr inbounds nuw %struct.variable, ptr %125, i32 0, i32 1
  %127 = load ptr, ptr %126, align 8
  %128 = getelementptr inbounds nuw %struct.ECPGtype, ptr %127, i32 0, i32 4
  %129 = load ptr, ptr %128, align 8
  %130 = getelementptr inbounds nuw %struct.ECPGtype, ptr %129, i32 0, i32 4
  %131 = load ptr, ptr %130, align 8
  %132 = load ptr, ptr %6, align 8
  %133 = getelementptr inbounds nuw %struct.variable, ptr %132, i32 0, i32 1
  %134 = load ptr, ptr %133, align 8
  %135 = getelementptr inbounds nuw %struct.ECPGtype, ptr %134, i32 0, i32 4
  %136 = load ptr, ptr %135, align 8
  %137 = getelementptr inbounds nuw %struct.ECPGtype, ptr %136, i32 0, i32 0
  %138 = load i32, ptr %137, align 8
  %139 = load ptr, ptr %6, align 8
  %140 = getelementptr inbounds nuw %struct.variable, ptr %139, i32 0, i32 1
  %141 = load ptr, ptr %140, align 8
  %142 = getelementptr inbounds nuw %struct.ECPGtype, ptr %141, i32 0, i32 4
  %143 = load ptr, ptr %142, align 8
  %144 = getelementptr inbounds nuw %struct.ECPGtype, ptr %143, i32 0, i32 1
  %145 = load ptr, ptr %144, align 8
  %146 = load ptr, ptr %6, align 8
  %147 = getelementptr inbounds nuw %struct.variable, ptr %146, i32 0, i32 1
  %148 = load ptr, ptr %147, align 8
  %149 = getelementptr inbounds nuw %struct.ECPGtype, ptr %148, i32 0, i32 4
  %150 = load ptr, ptr %149, align 8
  %151 = getelementptr inbounds nuw %struct.ECPGtype, ptr %150, i32 0, i32 3
  %152 = load ptr, ptr %151, align 8
  %153 = call ptr @ECPGmake_struct_type(ptr noundef %131, i32 noundef %138, ptr noundef %145, ptr noundef %152)
  %154 = load ptr, ptr %6, align 8
  %155 = getelementptr inbounds nuw %struct.variable, ptr %154, i32 0, i32 2
  %156 = load i32, ptr %155, align 8
  %157 = call ptr @new_variable(ptr noundef %124, ptr noundef %153, i32 noundef %156)
  store ptr %157, ptr %2, align 8
  store i32 1, ptr %9, align 4
  br label %186

158:                                              ; preds = %71
  %159 = load ptr, ptr %3, align 8
  %160 = load ptr, ptr %6, align 8
  %161 = getelementptr inbounds nuw %struct.variable, ptr %160, i32 0, i32 1
  %162 = load ptr, ptr %161, align 8
  %163 = getelementptr inbounds nuw %struct.ECPGtype, ptr %162, i32 0, i32 4
  %164 = load ptr, ptr %163, align 8
  %165 = getelementptr inbounds nuw %struct.ECPGtype, ptr %164, i32 0, i32 0
  %166 = load i32, ptr %165, align 8
  %167 = load ptr, ptr %6, align 8
  %168 = getelementptr inbounds nuw %struct.variable, ptr %167, i32 0, i32 1
  %169 = load ptr, ptr %168, align 8
  %170 = getelementptr inbounds nuw %struct.ECPGtype, ptr %169, i32 0, i32 4
  %171 = load ptr, ptr %170, align 8
  %172 = getelementptr inbounds nuw %struct.ECPGtype, ptr %171, i32 0, i32 2
  %173 = load ptr, ptr %172, align 8
  %174 = load ptr, ptr %6, align 8
  %175 = getelementptr inbounds nuw %struct.variable, ptr %174, i32 0, i32 1
  %176 = load ptr, ptr %175, align 8
  %177 = getelementptr inbounds nuw %struct.ECPGtype, ptr %176, i32 0, i32 4
  %178 = load ptr, ptr %177, align 8
  %179 = getelementptr inbounds nuw %struct.ECPGtype, ptr %178, i32 0, i32 5
  %180 = load i32, ptr %179, align 8
  %181 = call ptr @ECPGmake_simple_type(i32 noundef %166, ptr noundef %173, i32 noundef %180)
  %182 = load ptr, ptr %6, align 8
  %183 = getelementptr inbounds nuw %struct.variable, ptr %182, i32 0, i32 2
  %184 = load i32, ptr %183, align 8
  %185 = call ptr @new_variable(ptr noundef %159, ptr noundef %181, i32 noundef %184)
  store ptr %185, ptr %2, align 8
  store i32 1, ptr %9, align 4
  br label %186

186:                                              ; preds = %158, %123, %81
  call void @llvm.lifetime.end.p0(i64 1, ptr %8) #7
  br label %204

187:                                              ; preds = %47
  br label %193

188:                                              ; preds = %14
  %189 = load ptr, ptr %3, align 8
  %190 = load ptr, ptr %4, align 8
  %191 = load ptr, ptr %4, align 8
  %192 = call ptr @find_struct(ptr noundef %189, ptr noundef %190, ptr noundef %191)
  store ptr %192, ptr %6, align 8
  br label %193

193:                                              ; preds = %188, %187
  br label %197

194:                                              ; preds = %1
  %195 = load ptr, ptr %3, align 8
  %196 = call ptr @find_simple(ptr noundef %195)
  store ptr %196, ptr %6, align 8
  br label %197

197:                                              ; preds = %194, %193
  %198 = load ptr, ptr %6, align 8
  %199 = icmp eq ptr %198, null
  br i1 %199, label %200, label %202

200:                                              ; preds = %197
  %201 = load ptr, ptr %3, align 8
  call void (i32, ptr, ...) @mmfatal(i32 noundef 3, ptr noundef @.str.2, ptr noundef %201) #9
  unreachable

202:                                              ; preds = %197
  %203 = load ptr, ptr %6, align 8
  store ptr %203, ptr %2, align 8
  store i32 1, ptr %9, align 4
  br label %204

204:                                              ; preds = %202, %186
  call void @llvm.lifetime.end.p0(i64 4, ptr %7) #7
  call void @llvm.lifetime.end.p0(i64 8, ptr %6) #7
  call void @llvm.lifetime.end.p0(i64 8, ptr %5) #7
  call void @llvm.lifetime.end.p0(i64 8, ptr %4) #7
  %205 = load ptr, ptr %2, align 8
  ret ptr %205
}