; Function Attrs: nounwind uwtable
define dso_local ptr @find_variable(ptr noundef %0) local_unnamed_addr #0 {
  %2 = tail call ptr @strpbrk(ptr noundef %0, ptr noundef nonnull @.str) #7
  %.not = icmp eq ptr %2, null
  br i1 %.not, label %61, label %3

3:                                                ; preds = %1
  %4 = load i8, ptr %2, align 1
  %5 = icmp eq i8 %4, 91
  br i1 %5, label %.preheader, label %find_simple.exit63

.preheader:                                       ; preds = %3
  %.05171 = getelementptr inbounds nuw i8, ptr %2, i64 1
  br label %6

6:                                                ; preds = %.preheader, %13
  %.05173 = phi ptr [ %.05171, %.preheader ], [ %.051, %13 ]
  %.04872 = phi i32 [ 1, %.preheader ], [ %.149, %13 ]
  %7 = load i8, ptr %.05173, align 1
  switch i8 %7, label %13 [
    i8 91, label %8
    i8 93, label %10
    i8 0, label %12
  ]

8:                                                ; preds = %6
  %9 = add i32 %.04872, 1
  br label %13

10:                                               ; preds = %6
  %11 = add i32 %.04872, -1
  br label %13

12:                                               ; preds = %6
  tail call void (i32, ptr, ...) @mmfatal(i32 noundef 3, ptr noundef nonnull @.str.1, ptr noundef %0) #8
  unreachable

13:                                               ; preds = %8, %10, %6
  %.149 = phi i32 [ %.04872, %6 ], [ %11, %10 ], [ %9, %8 ]
  %.051 = getelementptr inbounds nuw i8, ptr %.05173, i64 1
  %.not54 = icmp eq i32 %.149, 0
  br i1 %.not54, label %14, label %6, !llvm.loop !4

14:                                               ; preds = %13
  %15 = load i8, ptr %.051, align 1
  %16 = icmp eq i8 %15, 46
  br i1 %16, label %find_simple.exit63, label %17

17:                                               ; preds = %14
  store i8 0, ptr %2, align 1
  %.07.i = load ptr, ptr @allvariables, align 8
  %.not8.i = icmp eq ptr %.07.i, null
  br i1 %.not8.i, label %.loopexit, label %.lr.ph.i

.lr.ph.i:                                         ; preds = %17, %21
  %.09.i = phi ptr [ %.0.i, %21 ], [ %.07.i, %17 ]
  %18 = load ptr, ptr %.09.i, align 8
  %19 = tail call i32 @strcmp(ptr noundef nonnull dereferenceable(1) %18, ptr noundef nonnull readonly dereferenceable(1) %0) #7
  %20 = icmp eq i32 %19, 0
  br i1 %20, label %find_simple.exit, label %21

21:                                               ; preds = %.lr.ph.i
  %22 = getelementptr inbounds nuw i8, ptr %.09.i, i64 24
  %.0.i = load ptr, ptr %22, align 8
  %.not.i = icmp eq ptr %.0.i, null
  br i1 %.not.i, label %.loopexit, label %.lr.ph.i, !llvm.loop !6

.loopexit:                                        ; preds = %21, %17
  tail call void (i32, ptr, ...) @mmfatal(i32 noundef 3, ptr noundef nonnull @.str.2, ptr noundef %0) #8
  unreachable

find_simple.exit:                                 ; preds = %.lr.ph.i
  %23 = getelementptr inbounds nuw i8, ptr %.09.i, i64 8
  %24 = load ptr, ptr %23, align 8
  %25 = load i32, ptr %24, align 8
  %.not55 = icmp eq i32 %25, 21
  br i1 %.not55, label %27, label %26

26:                                               ; preds = %find_simple.exit
  tail call void (i32, ptr, ...) @mmfatal(i32 noundef 3, ptr noundef nonnull @.str.3, ptr noundef nonnull %0) #8
  unreachable

27:                                               ; preds = %find_simple.exit
  store i8 91, ptr %2, align 1
  %28 = load ptr, ptr %23, align 8
  %29 = getelementptr inbounds nuw i8, ptr %28, i64 32
  %30 = load ptr, ptr %29, align 8
  %31 = load i32, ptr %30, align 8
  switch i32 %31, label %55 [
    i32 21, label %32
    i32 22, label %47
    i32 23, label %47
  ]

32:                                               ; preds = %27
  %33 = getelementptr inbounds nuw i8, ptr %30, i64 32
  %34 = load ptr, ptr %33, align 8
  %35 = load i32, ptr %34, align 8
  %36 = getelementptr inbounds nuw i8, ptr %34, i64 16
  %37 = load ptr, ptr %36, align 8
  %38 = getelementptr inbounds nuw i8, ptr %34, i64 40
  %39 = load i32, ptr %38, align 8
  %40 = tail call ptr @ECPGmake_simple_type(i32 noundef %35, ptr noundef %37, i32 noundef %39) #6
  %41 = load ptr, ptr %23, align 8
  %42 = getelementptr inbounds nuw i8, ptr %41, i64 32
  %43 = load ptr, ptr %42, align 8
  %44 = getelementptr inbounds nuw i8, ptr %43, i64 16
  %45 = load ptr, ptr %44, align 8
  %46 = tail call ptr @ECPGmake_array_type(ptr noundef %40, ptr noundef %45) #6
  br label %find_simple.exit63.thread66.sink.split

47:                                               ; preds = %27, %27
  %48 = getelementptr inbounds nuw i8, ptr %30, i64 32
  %49 = load ptr, ptr %48, align 8
  %50 = getelementptr inbounds nuw i8, ptr %30, i64 8
  %51 = load ptr, ptr %50, align 8
  %52 = getelementptr inbounds nuw i8, ptr %30, i64 24
  %53 = load ptr, ptr %52, align 8
  %54 = tail call ptr @ECPGmake_struct_type(ptr noundef %49, i32 noundef %31, ptr noundef %51, ptr noundef %53) #6
  br label %find_simple.exit63.thread66.sink.split

55:                                               ; preds = %27
  %56 = getelementptr inbounds nuw i8, ptr %30, i64 16
  %57 = load ptr, ptr %56, align 8
  %58 = getelementptr inbounds nuw i8, ptr %30, i64 40
  %59 = load i32, ptr %58, align 8
  %60 = tail call ptr @ECPGmake_simple_type(i32 noundef %31, ptr noundef %57, i32 noundef %59) #6
  br label %find_simple.exit63.thread66.sink.split

61:                                               ; preds = %1
  %.07.i56 = load ptr, ptr @allvariables, align 8
  %.not8.i57 = icmp eq ptr %.07.i56, null
  br i1 %.not8.i57, label %find_simple.exit63.thread, label %.lr.ph.i58

.lr.ph.i58:                                       ; preds = %61, %65
  %.09.i59 = phi ptr [ %.0.i60, %65 ], [ %.07.i56, %61 ]
  %62 = load ptr, ptr %.09.i59, align 8
  %63 = tail call i32 @strcmp(ptr noundef nonnull dereferenceable(1) %62, ptr noundef nonnull readonly dereferenceable(1) %0) #7
  %64 = icmp eq i32 %63, 0
  br i1 %64, label %find_simple.exit63.thread66, label %65

65:                                               ; preds = %.lr.ph.i58
  %66 = getelementptr inbounds nuw i8, ptr %.09.i59, i64 24
  %.0.i60 = load ptr, ptr %66, align 8
  %.not.i61 = icmp eq ptr %.0.i60, null
  br i1 %.not.i61, label %find_simple.exit63.thread, label %.lr.ph.i58, !llvm.loop !6

find_simple.exit63:                               ; preds = %3, %14
  %.051.lcssa.sink = phi ptr [ %.051, %14 ], [ %2, %3 ]
  %67 = tail call fastcc ptr @find_struct(ptr noundef %0, ptr noundef %2, ptr noundef %.051.lcssa.sink)
  %68 = icmp eq ptr %67, null
  br i1 %68, label %find_simple.exit63.thread, label %find_simple.exit63.thread66

find_simple.exit63.thread:                        ; preds = %65, %61, %find_simple.exit63
  tail call void (i32, ptr, ...) @mmfatal(i32 noundef 3, ptr noundef nonnull @.str.2, ptr noundef %0) #8
  unreachable

find_simple.exit63.thread66.sink.split:           ; preds = %55, %47, %32
  %.sink84 = phi ptr [ %46, %32 ], [ %54, %47 ], [ %60, %55 ]
  %69 = getelementptr inbounds nuw i8, ptr %.09.i, i64 16
  %70 = load i32, ptr %69, align 8
  %71 = tail call ptr @mm_alloc(i64 noundef 32) #6
  %72 = tail call ptr @mm_strdup(ptr noundef nonnull %0) #6
  store ptr %72, ptr %71, align 8
  %73 = getelementptr inbounds nuw i8, ptr %71, i64 8
  store ptr %.sink84, ptr %73, align 8
  %74 = getelementptr inbounds nuw i8, ptr %71, i64 16
  store i32 %70, ptr %74, align 8
  %75 = load ptr, ptr @allvariables, align 8
  %76 = getelementptr inbounds nuw i8, ptr %71, i64 24
  store ptr %75, ptr %76, align 8
  store ptr %71, ptr @allvariables, align 8
  br label %find_simple.exit63.thread66

find_simple.exit63.thread66:                      ; preds = %.lr.ph.i58, %find_simple.exit63.thread66.sink.split, %find_simple.exit63
  %.1 = phi ptr [ %67, %find_simple.exit63 ], [ %71, %find_simple.exit63.thread66.sink.split ], [ %.09.i59, %.lr.ph.i58 ]
  ret ptr %.1
}